; Function Attrs: nounwind uwtable
define internal void @socket_close(i32 %0, i64 %1) #0 {
  %3 = load ptr, ptr @MyProcPort, align 8
  %.not = icmp eq ptr %3, null
  br i1 %.not, label %6, label %4

4:                                                ; preds = %2
  tail call void @secure_close(ptr noundef nonnull %3) #21
  %5 = load ptr, ptr @MyProcPort, align 8
  store i32 -1, ptr %5, align 8
  br label %6

6:                                                ; preds = %4, %2
  ret void
}